; ModuleID = 'source-C-CXX/42/257.c'
source_filename = "source-C-CXX/42/257.c"
target datalayout = "e-m:e-p270:32:32-p271:32:32-p272:64:64-i64:64-f80:128-n8:16:32:64-S128"
target triple = "x86_64-pc-linux-gnu"

%struct._IO_FILE = type { i32, i8*, i8*, i8*, i8*, i8*, i8*, i8*, i8*, i8*, i8*, i8*, %struct._IO_marker*, %struct._IO_FILE*, i32, i32, i64, i16, i8, [1 x i8], i8*, i64, %struct._IO_codecvt*, %struct._IO_wide_data*, %struct._IO_FILE*, i8*, i64, i32, [20 x i8] }
%struct._IO_marker = type opaque
%struct._IO_codecvt = type opaque
%struct._IO_wide_data = type opaque

@.str = private unnamed_addr constant [3 x i8] c"%d\00", align 1
@.str.1 = private unnamed_addr constant [7 x i8] c"%d %d\0A\00", align 1
@stdin = external local_unnamed_addr global %struct._IO_FILE*, align 8

; Function Attrs: nofree nounwind sspstrong uwtable
define dso_local i32 @main() local_unnamed_addr #0 {
  %1 = alloca i32, align 4
  %2 = bitcast i32* %1 to i8*
  call void @llvm.lifetime.start.p0i8(i64 4, i8* nonnull %2) #3
  %3 = call i32 (i8*, ...) @__isoc99_scanf(i8* getelementptr inbounds ([3 x i8], [3 x i8]* @.str, i64 0, i64 0), i32* nonnull %1)
  %4 = load i32, i32* %1, align 4, !tbaa !5
  %5 = icmp slt i32 %4, 6
  br i1 %5, label %43, label %6

6:                                                ; preds = %0, %37
  %7 = phi i32 [ %38, %37 ], [ %4, %0 ]
  %8 = phi i32 [ %42, %37 ], [ -3, %0 ]
  %9 = phi i32 [ %39, %37 ], [ 3, %0 ]
  br label %10

10:                                               ; preds = %6, %14
  %11 = phi i32 [ %15, %14 ], [ 2, %6 ]
  %12 = urem i32 %9, %11
  %13 = icmp eq i32 %12, 0
  br i1 %13, label %17, label %14

14:                                               ; preds = %10
  %15 = add nuw nsw i32 %11, 1
  %16 = icmp eq i32 %15, %9
  br i1 %16, label %19, label %10, !llvm.loop !9

17:                                               ; preds = %10
  %18 = icmp eq i32 %11, %9
  br i1 %18, label %19, label %37

19:                                               ; preds = %14, %17
  %20 = sub nsw i32 %7, %9
  %21 = icmp sgt i32 %20, 2
  br i1 %21, label %22, label %31

22:                                               ; preds = %19
  %23 = add i32 %7, %8
  br label %24

24:                                               ; preds = %22, %28
  %25 = phi i32 [ %29, %28 ], [ 2, %22 ]
  %26 = srem i32 %20, %25
  %27 = icmp eq i32 %26, 0
  br i1 %27, label %31, label %28

28:                                               ; preds = %24
  %29 = add nuw nsw i32 %25, 1
  %30 = icmp eq i32 %29, %23
  br i1 %30, label %31, label %24, !llvm.loop !11

31:                                               ; preds = %28, %24, %19
  %32 = phi i32 [ 2, %19 ], [ %25, %24 ], [ %23, %28 ]
  %33 = icmp eq i32 %32, %20
  br i1 %33, label %34, label %37

34:                                               ; preds = %31
  %35 = call i32 (i8*, ...) @printf(i8* nonnull dereferenceable(1) getelementptr inbounds ([7 x i8], [7 x i8]* @.str.1, i64 0, i64 0), i32 %9, i32 %20)
  %36 = load i32, i32* %1, align 4, !tbaa !5
  br label %37

37:                                               ; preds = %17, %34, %31
  %38 = phi i32 [ %7, %17 ], [ %36, %34 ], [ %7, %31 ]
  %39 = add nuw nsw i32 %9, 1
  %40 = sdiv i32 %38, 2
  %41 = icmp slt i32 %9, %40
  %42 = add nsw i32 %8, -1
  br i1 %41, label %6, label %43, !llvm.loop !12

43:                                               ; preds = %37, %0
  %44 = load %struct._IO_FILE*, %struct._IO_FILE** @stdin, align 8, !tbaa !13
  %45 = call i32 @getc(%struct._IO_FILE* %44) #3
  %46 = load %struct._IO_FILE*, %struct._IO_FILE** @stdin, align 8, !tbaa !13
  %47 = call i32 @getc(%struct._IO_FILE* %46) #3
  call void @llvm.lifetime.end.p0i8(i64 4, i8* nonnull %2) #3
  ret i32 0
}

; Function Attrs: argmemonly mustprogress nofree nosync nounwind willreturn
declare void @llvm.lifetime.start.p0i8(i64 immarg, i8* nocapture) #1

; Function Attrs: nofree nounwind
declare noundef i32 @__isoc99_scanf(i8* nocapture noundef readonly, ...) local_unnamed_addr #2

; Function Attrs: nofree nounwind
declare noundef i32 @printf(i8* nocapture noundef readonly, ...) local_unnamed_addr #2

; Function Attrs: argmemonly mustprogress nofree nosync nounwind willreturn
declare void @llvm.lifetime.end.p0i8(i64 immarg, i8* nocapture) #1

; Function Attrs: nofree nounwind
declare noundef i32 @getc(%struct._IO_FILE* nocapture noundef) local_unnamed_addr #2


!llvm.module.flags = !{!0, !1, !2, !3}
!llvm.ident = !{!4}

!0 = !{i32 1, !"wchar_size", i32 4}
!1 = !{i32 7, !"PIC Level", i32 2}
!2 = !{i32 7, !"PIE Level", i32 2}
!3 = !{i32 7, !"uwtable", i32 1}
!4 = !{!"clang version 13.0.0"}
!5 = !{!6, !6, i64 0}
!6 = !{!"int", !7, i64 0}
!7 = !{!"omnipotent char", !8, i64 0}
!8 = !{!"Simple C/C++ TBAA"}
!9 = distinct !{!9, !10}
!10 = !{!"llvm.loop.mustprogress"}
!11 = distinct !{!11, !10}
!12 = distinct !{!12, !10}
!13 = !{!14, !14, i64 0}
!14 = !{!"any pointer", !7, i64 0}
